target datalayout = "e-m:e-p270:32:32-p271:32:32-p272:64:64-i64:64-i128:128-f80:128-n8:16:32:64-S128"
target triple = "x86_64-pc-linux-gnu"

%struct.OSQPVectorf_ = type { ptr, i64 }

@.str.58 = private unnamed_addr constant [4 x i8] c"};\0A\00", align 1
@.str.65 = private unnamed_addr constant [21 x i8] c"  (OSQPFloat)%.20f,\0A\00", align 1
@.str.179 = private unnamed_addr constant [24 x i8] c"#define %s (OSQP_NULL)\0A\00", align 1
@.str.180 = private unnamed_addr constant [24 x i8] c"OSQPFloat %s[%lld] = {\0A\00", align 1
@.str.221 = private unnamed_addr constant [7 x i8] c"%s_val\00", align 1
@.str.222 = private unnamed_addr constant [36 x i8] c"OSQPVectorf %s = {\0A  %s,\0A  %lld\0A};\0A\00", align 1

; Function Attrs: nounwind uwtable
define internal i64 @write_vecf(ptr noundef %0, ptr noundef %1, i64 noundef %2, ptr noundef %3) #0 {
  %5 = alloca ptr, align 8
  %6 = alloca ptr, align 8
  %7 = alloca i64, align 8
  %8 = alloca ptr, align 8
  %9 = alloca i64, align 8
  store ptr %0, ptr %5, align 8
  store ptr %1, ptr %6, align 8
  store i64 %2, ptr %7, align 8
  store ptr %3, ptr %8, align 8
  %10 = load i64, ptr %7, align 8
  %11 = icmp ne i64 %10, 0
  br i1 %11, label %12, label %37

12:                                               ; preds = %4
  %13 = load ptr, ptr %6, align 8
  %14 = icmp ne ptr %13, null
  br i1 %14, label %15, label %37

15:                                               ; preds = %12
  %16 = load ptr, ptr %5, align 8
  %17 = load ptr, ptr %8, align 8
  %18 = load i64, ptr %7, align 8
  %19 = call i32 (ptr, ptr, ...) @fprintf(ptr noundef %16, ptr noundef @.str.180, ptr noundef %17, i64 noundef %18) #4
  store i64 0, ptr %9, align 8
  br label %20

20:                                               ; preds = %31, %15
  %21 = load i64, ptr %9, align 8
  %22 = load i64, ptr %7, align 8
  %23 = icmp slt i64 %21, %22
  br i1 %23, label %24, label %34

24:                                               ; preds = %20
  %25 = load ptr, ptr %5, align 8
  %26 = load ptr, ptr %6, align 8
  %27 = load i64, ptr %9, align 8
  %28 = getelementptr inbounds double, ptr %26, i64 %27
  %29 = load double, ptr %28, align 8
  %30 = call i32 (ptr, ptr, ...) @fprintf(ptr noundef %25, ptr noundef @.str.65, double noundef %29) #4
  br label %31

31:                                               ; preds = %24
  %32 = load i64, ptr %9, align 8
  %33 = add nsw i64 %32, 1
  store i64 %33, ptr %9, align 8
  br label %20, !llvm.loop !7

34:                                               ; preds = %20
  %35 = load ptr, ptr %5, align 8
  %36 = call i32 (ptr, ptr, ...) @fprintf(ptr noundef %35, ptr noundef @.str.58) #4
  br label %41

37:                                               ; preds = %12, %4
  %38 = load ptr, ptr %5, align 8
  %39 = load ptr, ptr %8, align 8
  %40 = call i32 (ptr, ptr, ...) @fprintf(ptr noundef %38, ptr noundef @.str.179, ptr noundef %39) #4
  br label %41

41:                                               ; preds = %37, %34
  ret i64 0
}

; Function Attrs: nounwind uwtable
define internal i64 @write_OSQPVectorf(ptr noundef %0, ptr noundef %1, ptr noundef %2) #0 {
  %4 = alloca i64, align 8
  %5 = alloca ptr, align 8
  %6 = alloca ptr, align 8
  %7 = alloca ptr, align 8
  %8 = alloca i64, align 8
  %9 = alloca [255 x i8], align 16
  store ptr %0, ptr %5, align 8
  store ptr %1, ptr %6, align 8
  store ptr %2, ptr %7, align 8
  store i64 0, ptr %8, align 8
  %10 = load ptr, ptr %6, align 8
  %11 = icmp ne ptr %10, null
  br i1 %11, label %13, label %12

12:                                               ; preds = %3
  store i64 10, ptr %4, align 8
  br label %39

13:                                               ; preds = %3
  %14 = getelementptr inbounds [255 x i8], ptr %9, i64 0, i64 0
  %15 = load ptr, ptr %7, align 8
  %16 = call i32 (ptr, ptr, ...) @sprintf(ptr noundef %14, ptr noundef @.str.221, ptr noundef %15) #4
  %17 = load ptr, ptr %5, align 8
  %18 = load ptr, ptr %6, align 8
  %19 = getelementptr inbounds %struct.OSQPVectorf_, ptr %18, i32 0, i32 0
  %20 = load ptr, ptr %19, align 8
  %21 = load ptr, ptr %6, align 8
  %22 = getelementptr inbounds %struct.OSQPVectorf_, ptr %21, i32 0, i32 1
  %23 = load i64, ptr %22, align 8
  %24 = getelementptr inbounds [255 x i8], ptr %9, i64 0, i64 0
  %25 = call i64 @write_vecf(ptr noundef %17, ptr noundef %20, i64 noundef %23, ptr noundef %24)
  store i64 %25, ptr %8, align 8
  %26 = load i64, ptr %8, align 8
  %27 = icmp ne i64 %26, 0
  br i1 %27, label %28, label %30

28:                                               ; preds = %13
  %29 = load i64, ptr %8, align 8
  store i64 %29, ptr %4, align 8
  br label %39

30:                                               ; preds = %13
  %31 = load ptr, ptr %5, align 8
  %32 = load ptr, ptr %7, align 8
  %33 = getelementptr inbounds [255 x i8], ptr %9, i64 0, i64 0
  %34 = load ptr, ptr %6, align 8
  %35 = getelementptr inbounds %struct.OSQPVectorf_, ptr %34, i32 0, i32 1
  %36 = load i64, ptr %35, align 8
  %37 = call i32 (ptr, ptr, ...) @fprintf(ptr noundef %31, ptr noundef @.str.222, ptr noundef %32, ptr noundef %33, i64 noundef %36) #4
  %38 = load i64, ptr %8, align 8
  store i64 %38, ptr %4, align 8
  br label %39

39:                                               ; preds = %30, %28, %12
  %40 = load i64, ptr %4, align 8
  ret i64 %40
}