; Function Attrs: nofree nounwind uwtable
define internal fastcc noundef i64 @write_OSQPVectorf(ptr nocapture noundef %0, ptr noundef readonly %1, ptr noundef %2) unnamed_addr #5 {
  %4 = alloca [255 x i8], align 16
  %.not = icmp eq ptr %1, null
  br i1 %.not, label %24, label %5

5:                                                ; preds = %3
  %6 = call i32 (ptr, ptr, ...) @sprintf(ptr noundef nonnull dereferenceable(1) %4, ptr noundef nonnull dereferenceable(1) @.str.221, ptr noundef %2) #8
  %7 = load ptr, ptr %1, align 8
  %8 = getelementptr inbounds i8, ptr %1, i64 8
  %9 = load i64, ptr %8, align 8
  %10 = icmp ne i64 %9, 0
  %11 = icmp ne ptr %7, null
  %or.cond.i = and i1 %11, %10
  br i1 %or.cond.i, label %12, label %20

12:                                               ; preds = %5
  %13 = call i32 (ptr, ptr, ...) @fprintf(ptr noundef %0, ptr noundef nonnull @.str.180, ptr noundef nonnull %4, i64 noundef %9) #8
  %14 = icmp sgt i64 %9, 0
  br i1 %14, label %.lr.ph.i, label %._crit_edge.i

.lr.ph.i:                                         ; preds = %12, %.lr.ph.i
  %.016.i = phi i64 [ %18, %.lr.ph.i ], [ 0, %12 ]
  %15 = getelementptr inbounds double, ptr %7, i64 %.016.i
  %16 = load double, ptr %15, align 8
  %17 = call i32 (ptr, ptr, ...) @fprintf(ptr noundef %0, ptr noundef nonnull @.str.65, double noundef %16) #8
  %18 = add nuw nsw i64 %.016.i, 1
  %exitcond.not.i = icmp eq i64 %18, %9
  br i1 %exitcond.not.i, label %._crit_edge.i, label %.lr.ph.i, !llvm.loop !7

._crit_edge.i:                                    ; preds = %.lr.ph.i, %12
  %19 = call i64 @fwrite(ptr nonnull @.str.58, i64 3, i64 1, ptr %0)
  br label %write_vecf.exit

20:                                               ; preds = %5
  %21 = call i32 (ptr, ptr, ...) @fprintf(ptr noundef %0, ptr noundef nonnull @.str.179, ptr noundef nonnull %4) #8
  br label %write_vecf.exit

write_vecf.exit:                                  ; preds = %._crit_edge.i, %20
  %22 = load i64, ptr %8, align 8
  %23 = call i32 (ptr, ptr, ...) @fprintf(ptr noundef %0, ptr noundef nonnull @.str.222, ptr noundef %2, ptr noundef nonnull %4, i64 noundef %22) #8
  br label %24

24:                                               ; preds = %3, %write_vecf.exit
  %.0 = phi i64 [ 0, %write_vecf.exit ], [ 10, %3 ]
  ret i64 %.0
}